ccopy_reg
_reconstructor
p1
(cprintingmaterial
Printingmaterial
p2
c__builtin__
object
p3
NtRp4
(dp5
S'name'
p6
S'Stratasys-ABS-P430'
p7
sS'cs_area'
p8
(dp9
S'unit'
p10
S'm^2'
p11
sS'value'
p12
F2.405264516129032e-06
ssS'density'
p13
(dp14
g10
S'kg*m^-3'
p15
sg12
F1077621.1340206186
ssb.